; Function Attrs: nounwind uwtable
define dso_local i32 @lua_pcall(ptr noundef %0, i32 noundef %1, i32 noundef %2, i32 noundef %3) local_unnamed_addr #2 {
  %5 = alloca %struct.CallS, align 8
  call void @llvm.lifetime.start.p0(i64 16, ptr nonnull %5) #14
  %6 = icmp eq i32 %3, 0
  br i1 %6, label %._crit_edge, label %7

._crit_edge:                                      ; preds = %4
  %.phi.trans.insert = getelementptr inbounds nuw i8, ptr %0, i64 64
  %.pre = load ptr, ptr %.phi.trans.insert, align 8, !tbaa !51
  %.pre18 = ptrtoint ptr %.pre to i64
  br label %61

7:                                                ; preds = %4
  %8 = icmp sgt i32 %3, 0
  br i1 %8, label %9, label %17

9:                                                ; preds = %7
  %10 = getelementptr inbounds nuw i8, ptr %0, i64 24
  %11 = load ptr, ptr %10, align 8, !tbaa !21
  %12 = zext nneg i32 %3 to i64
  %13 = getelementptr %struct.lua_TValue, ptr %11, i64 %12
  %14 = getelementptr i8, ptr %13, i64 -16
  %15 = getelementptr inbounds nuw i8, ptr %0, i64 16
  %16 = load ptr, ptr %15, align 8, !tbaa !4
  %.not28.i = icmp ult ptr %14, %16
  %.luaO_nilobject_.i = select i1 %.not28.i, ptr %14, ptr @luaO_nilobject_
  br label %index2adr.exit

17:                                               ; preds = %7
  %18 = icmp samesign ugt i32 %3, -10000
  br i1 %18, label %19, label %24

19:                                               ; preds = %17
  %20 = getelementptr inbounds nuw i8, ptr %0, i64 16
  %21 = load ptr, ptr %20, align 8, !tbaa !4
  %22 = sext i32 %3 to i64
  %23 = getelementptr inbounds %struct.lua_TValue, ptr %21, i64 %22
  br label %index2adr.exit

24:                                               ; preds = %17
  switch i32 %3, label %41 [
    i32 -10000, label %25
    i32 -10001, label %29
    i32 -10002, label %39
  ]

25:                                               ; preds = %24
  %26 = getelementptr inbounds nuw i8, ptr %0, i64 32
  %27 = load ptr, ptr %26, align 8, !tbaa !29
  %28 = getelementptr inbounds nuw i8, ptr %27, i64 160
  br label %index2adr.exit

29:                                               ; preds = %24
  %30 = getelementptr inbounds nuw i8, ptr %0, i64 40
  %31 = load ptr, ptr %30, align 8, !tbaa !23
  %32 = getelementptr inbounds nuw i8, ptr %31, i64 8
  %33 = load ptr, ptr %32, align 8, !tbaa !41
  %34 = load ptr, ptr %33, align 8, !tbaa !19
  %35 = getelementptr inbounds nuw i8, ptr %0, i64 136
  %36 = getelementptr inbounds nuw i8, ptr %34, i64 24
  %37 = load ptr, ptr %36, align 8, !tbaa !19
  store ptr %37, ptr %35, align 8, !tbaa !19
  %38 = getelementptr inbounds nuw i8, ptr %0, i64 144
  store i32 5, ptr %38, align 8, !tbaa !20
  br label %index2adr.exit

39:                                               ; preds = %24
  %40 = getelementptr inbounds nuw i8, ptr %0, i64 120
  br label %index2adr.exit

41:                                               ; preds = %24
  %42 = getelementptr inbounds nuw i8, ptr %0, i64 40
  %43 = load ptr, ptr %42, align 8, !tbaa !23
  %44 = getelementptr inbounds nuw i8, ptr %43, i64 8
  %45 = load ptr, ptr %44, align 8, !tbaa !41
  %46 = load ptr, ptr %45, align 8, !tbaa !19
  %47 = sub nuw nsw i32 -10002, %3
  %48 = getelementptr inbounds nuw i8, ptr %46, i64 11
  %49 = load i8, ptr %48, align 1, !tbaa !19
  %50 = zext i8 %49 to i32
  %.not.i = icmp samesign ugt i32 %47, %50
  %51 = getelementptr inbounds nuw i8, ptr %46, i64 40
  %52 = sub nuw nsw i32 -10003, %3
  %53 = zext nneg i32 %52 to i64
  %54 = getelementptr inbounds nuw [1 x %struct.lua_TValue], ptr %51, i64 0, i64 %53
  %55 = select i1 %.not.i, ptr @luaO_nilobject_, ptr %54
  br label %index2adr.exit

index2adr.exit:                                   ; preds = %9, %19, %25, %29, %39, %41
  %.1.i = phi ptr [ %.luaO_nilobject_.i, %9 ], [ %23, %19 ], [ %55, %41 ], [ %40, %39 ], [ %35, %29 ], [ %28, %25 ]
  %56 = getelementptr inbounds nuw i8, ptr %0, i64 64
  %57 = load ptr, ptr %56, align 8, !tbaa !51
  %58 = ptrtoint ptr %.1.i to i64
  %59 = ptrtoint ptr %57 to i64
  %60 = sub i64 %58, %59
  br label %61

61:                                               ; preds = %._crit_edge, %index2adr.exit
  %.pre-phi = phi i64 [ %.pre18, %._crit_edge ], [ %59, %index2adr.exit ]
  %.0 = phi i64 [ 0, %._crit_edge ], [ %60, %index2adr.exit ]
  %62 = getelementptr inbounds nuw i8, ptr %0, i64 16
  %63 = load ptr, ptr %62, align 8, !tbaa !4
  %narrow = xor i32 %1, -1
  %64 = sext i32 %narrow to i64
  %65 = getelementptr inbounds %struct.lua_TValue, ptr %63, i64 %64
  store ptr %65, ptr %5, align 8, !tbaa !52
  %66 = getelementptr inbounds nuw i8, ptr %5, i64 8
  store i32 %2, ptr %66, align 8, !tbaa !54
  %67 = ptrtoint ptr %65 to i64
  %68 = sub i64 %67, %.pre-phi
  %69 = call i32 @luaD_pcall(ptr noundef nonnull %0, ptr noundef nonnull @f_call, ptr noundef nonnull %5, i64 noundef %68, i64 noundef %.0) #14
  %70 = icmp eq i32 %2, -1
  br i1 %70, label %71, label %78

71:                                               ; preds = %61
  %72 = load ptr, ptr %62, align 8, !tbaa !4
  %73 = getelementptr inbounds nuw i8, ptr %0, i64 40
  %74 = load ptr, ptr %73, align 8, !tbaa !23
  %75 = getelementptr inbounds nuw i8, ptr %74, i64 16
  %76 = load ptr, ptr %75, align 8, !tbaa !24
  %.not = icmp ult ptr %72, %76
  br i1 %.not, label %78, label %77

77:                                               ; preds = %71
  store ptr %72, ptr %75, align 8, !tbaa !24
  br label %78

78:                                               ; preds = %77, %71, %61
  call void @llvm.lifetime.end.p0(i64 16, ptr nonnull %5) #14
  ret i32 %69
}